target datalayout = "e-m:e-p270:32:32-p271:32:32-p272:64:64-i64:64-i128:128-f80:128-n8:16:32:64-S128"
target triple = "x86_64-pc-linux-gnu"

%struct.ossl_qrl_enc_level_set_st = type { [4 x %struct.ossl_qrl_enc_level_st] }
%struct.ossl_qrl_enc_level_st = type { %struct.quic_hdr_protector_st, ptr, [2 x ptr], ptr, ptr, i64, i64, i32, i32, i8, i8, [2 x [16 x i8]], [64 x i8] }
%struct.quic_hdr_protector_st = type { ptr, ptr, ptr, ptr, i32 }

; Function Attrs: nounwind uwtable
define ptr @ossl_qrl_enc_level_set_get(ptr noundef %0, i32 noundef %1, i32 noundef %2) #0 {
  %4 = alloca ptr, align 8
  %5 = alloca ptr, align 8
  %6 = alloca i32, align 4
  %7 = alloca i32, align 4
  %8 = alloca ptr, align 8
  %9 = alloca i32, align 4
  store ptr %0, ptr %5, align 8, !tbaa !3
  store i32 %1, ptr %6, align 4, !tbaa !8
  store i32 %2, ptr %7, align 4, !tbaa !8
  call void @llvm.lifetime.start.p0(i64 8, ptr %8) #5
  %10 = load i32, ptr %6, align 4, !tbaa !8
  %11 = icmp ult i32 %10, 4
  %12 = zext i1 %11 to i32
  %13 = icmp ne i32 %12, 0
  %14 = xor i1 %13, true
  %15 = xor i1 %14, true
  %16 = zext i1 %15 to i32
  %17 = sext i32 %16 to i64
  %18 = call i64 @llvm.expect.i64(i64 %17, i64 1)
  %19 = icmp ne i64 %18, 0
  br i1 %19, label %21, label %20

20:                                               ; preds = %3
  store ptr null, ptr %4, align 8
  store i32 1, ptr %9, align 4
  br label %39

21:                                               ; preds = %3
  %22 = load ptr, ptr %5, align 8, !tbaa !3
  %23 = getelementptr inbounds nuw %struct.ossl_qrl_enc_level_set_st, ptr %22, i32 0, i32 0
  %24 = load i32, ptr %6, align 4, !tbaa !8
  %25 = zext i32 %24 to i64
  %26 = getelementptr inbounds nuw [4 x %struct.ossl_qrl_enc_level_st], ptr %23, i64 0, i64 %25
  store ptr %26, ptr %8, align 8, !tbaa !10
  %27 = load i32, ptr %7, align 4, !tbaa !8
  %28 = icmp ne i32 %27, 0
  br i1 %28, label %29, label %37

29:                                               ; preds = %21
  %30 = load ptr, ptr %8, align 8, !tbaa !10
  %31 = getelementptr inbounds nuw %struct.ossl_qrl_enc_level_st, ptr %30, i32 0, i32 9
  %32 = load i8, ptr %31, align 8, !tbaa !12
  %33 = zext i8 %32 to i32
  switch i32 %33, label %35 [
    i32 1, label %34
    i32 2, label %34
    i32 3, label %34
  ]

34:                                               ; preds = %29, %29, %29
  br label %36

35:                                               ; preds = %29
  store ptr null, ptr %4, align 8
  store i32 1, ptr %9, align 4
  br label %39

36:                                               ; preds = %34
  br label %37

37:                                               ; preds = %36, %21
  %38 = load ptr, ptr %8, align 8, !tbaa !10
  store ptr %38, ptr %4, align 8
  store i32 1, ptr %9, align 4
  br label %39

39:                                               ; preds = %37, %35, %20
  call void @llvm.lifetime.end.p0(i64 8, ptr %8) #5
  %40 = load ptr, ptr %4, align 8
  ret ptr %40
}

; Function Attrs: nounwind uwtable
define i32 @ossl_qrl_enc_level_set_has_keyslot(ptr noundef %0, i32 noundef %1, i8 noundef zeroext %2, i64 noundef %3) #0 {
  %5 = alloca i32, align 4
  %6 = alloca ptr, align 8
  %7 = alloca i32, align 4
  %8 = alloca i8, align 1
  %9 = alloca i64, align 8
  %10 = alloca ptr, align 8
  %11 = alloca i32, align 4
  store ptr %0, ptr %6, align 8, !tbaa !3
  store i32 %1, ptr %7, align 4, !tbaa !8
  store i8 %2, ptr %8, align 1, !tbaa !21
  store i64 %3, ptr %9, align 8, !tbaa !22
  call void @llvm.lifetime.start.p0(i64 8, ptr %10) #5
  %12 = load ptr, ptr %6, align 8, !tbaa !3
  %13 = load i32, ptr %7, align 4, !tbaa !8
  %14 = call ptr @ossl_qrl_enc_level_set_get(ptr noundef %12, i32 noundef %13, i32 noundef 0)
  store ptr %14, ptr %10, align 8, !tbaa !10
  %15 = load ptr, ptr %10, align 8, !tbaa !10
  %16 = icmp ne ptr %15, null
  br i1 %16, label %17, label %20

17:                                               ; preds = %4
  %18 = load i64, ptr %9, align 8, !tbaa !22
  %19 = icmp ult i64 %18, 2
  br label %20

20:                                               ; preds = %17, %4
  %21 = phi i1 [ false, %4 ], [ %19, %17 ]
  %22 = zext i1 %21 to i32
  %23 = icmp ne i32 %22, 0
  %24 = xor i1 %23, true
  %25 = xor i1 %24, true
  %26 = zext i1 %25 to i32
  %27 = sext i32 %26 to i64
  %28 = call i64 @llvm.expect.i64(i64 %27, i64 1)
  %29 = icmp ne i64 %28, 0
  br i1 %29, label %31, label %30

30:                                               ; preds = %20
  store i32 0, ptr %5, align 4
  store i32 1, ptr %11, align 4
  br label %52

31:                                               ; preds = %20
  %32 = load i8, ptr %8, align 1, !tbaa !21
  %33 = zext i8 %32 to i32
  switch i32 %33, label %51 [
    i32 1, label %34
    i32 2, label %34
    i32 3, label %43
  ]

34:                                               ; preds = %31, %31
  %35 = load i32, ptr %7, align 4, !tbaa !8
  %36 = icmp eq i32 %35, 3
  br i1 %36, label %40, label %37

37:                                               ; preds = %34
  %38 = load i64, ptr %9, align 8, !tbaa !22
  %39 = icmp eq i64 %38, 0
  br label %40

40:                                               ; preds = %37, %34
  %41 = phi i1 [ true, %34 ], [ %39, %37 ]
  %42 = zext i1 %41 to i32
  store i32 %42, ptr %5, align 4
  store i32 1, ptr %11, align 4
  br label %52

43:                                               ; preds = %31
  %44 = load i64, ptr %9, align 8, !tbaa !22
  %45 = load ptr, ptr %10, align 8, !tbaa !10
  %46 = getelementptr inbounds nuw %struct.ossl_qrl_enc_level_st, ptr %45, i32 0, i32 5
  %47 = load i64, ptr %46, align 8, !tbaa !23
  %48 = and i64 %47, 1
  %49 = icmp eq i64 %44, %48
  %50 = zext i1 %49 to i32
  store i32 %50, ptr %5, align 4
  store i32 1, ptr %11, align 4
  br label %52

51:                                               ; preds = %31
  store i32 0, ptr %5, align 4
  store i32 1, ptr %11, align 4
  br label %52

52:                                               ; preds = %51, %43, %40, %30
  call void @llvm.lifetime.end.p0(i64 8, ptr %10) #5
  %53 = load i32, ptr %5, align 4
  ret i32 %53
}