; Function Attrs: mustprogress nofree norecurse nosync nounwind willreturn memory(argmem: read) uwtable
define range(i32 0, 2) i32 @ossl_qrl_enc_level_set_has_keyslot(ptr noundef readonly captures(address_is_null) %0, i32 noundef %1, i8 noundef zeroext %2, i64 noundef %3) local_unnamed_addr #0 {
  %5 = icmp ult i32 %1, 4
  br i1 %5, label %ossl_qrl_enc_level_set_get.exit, label %ossl_qrl_enc_level_set_get.exit.thread, !prof !3

ossl_qrl_enc_level_set_get.exit:                  ; preds = %4
  %6 = zext nneg i32 %1 to i64
  %7 = icmp ne ptr %0, null
  %8 = icmp ult i64 %3, 2
  %9 = and i1 %7, %8
  br i1 %9, label %10, label %ossl_qrl_enc_level_set_get.exit.thread, !prof !17

10:                                               ; preds = %ossl_qrl_enc_level_set_get.exit
  switch i8 %2, label %ossl_qrl_enc_level_set_get.exit.thread [
    i8 1, label %11
    i8 2, label %11
    i8 3, label %15
  ]

11:                                               ; preds = %10, %10
  %12 = icmp eq i32 %1, 3
  %13 = icmp eq i64 %3, 0
  %14 = or i1 %12, %13
  br label %ossl_qrl_enc_level_set_get.exit.thread

15:                                               ; preds = %10
  %16 = getelementptr inbounds nuw [4 x %struct.ossl_qrl_enc_level_st], ptr %0, i64 0, i64 %6, i32 5
  %17 = load i64, ptr %16, align 8, !tbaa !18
  %18 = and i64 %17, 1
  %19 = icmp eq i64 %3, %18
  br label %ossl_qrl_enc_level_set_get.exit.thread

ossl_qrl_enc_level_set_get.exit.thread:           ; preds = %4, %10, %ossl_qrl_enc_level_set_get.exit, %15, %11
  %.0.shrunk = phi i1 [ %19, %15 ], [ %14, %11 ], [ false, %ossl_qrl_enc_level_set_get.exit ], [ false, %10 ], [ false, %4 ]
  %.0 = zext i1 %.0.shrunk to i32
  ret i32 %.0
}